target datalayout = "e-m:e-p270:32:32-p271:32:32-p272:64:64-i64:64-i128:128-f80:128-n8:16:32:64-S128"
target triple = "x86_64-pc-linux-gnu"

%struct.archive_read_filter = type { i64, ptr, ptr, ptr, ptr, ptr, ptr, i32, i32, i32, ptr, i64, ptr, i64, ptr, i64, ptr, i64, i8, i8, i8 }
%struct.archive_read = type { %struct.archive, ptr, i32, i64, i64, %struct.archive_read_client, [16 x %struct.archive_read_filter_bidder], ptr, i32, i64, i32, i32, [16 x %struct.archive_format_descriptor], ptr, ptr, ptr, %struct.anon }
%struct.archive = type { i32, i32, ptr, i32, ptr, i32, i32, ptr, %struct.archive_string, ptr, i32, i32, ptr, ptr, i64, i64, i64, i8, i64 }
%struct.archive_string = type { ptr, i64, i64 }
%struct.archive_read_client = type { ptr, ptr, ptr, ptr, ptr, ptr, i32, i32, i64, ptr }
%struct.archive_read_filter_bidder = type { ptr, ptr, ptr }
%struct.archive_format_descriptor = type { ptr, ptr, ptr, ptr, ptr, ptr, ptr, ptr, ptr, ptr, ptr }
%struct.anon = type { ptr, ptr, i32, ptr, ptr }
%struct.private_data = type { %struct.lzma_stream, ptr, i64, i64, i8, i8, i8, i32, i64, i64 }
%struct.lzma_stream = type { ptr, i64, i64, ptr, i64, i64, ptr, ptr, ptr, ptr, ptr, ptr, i64, i64, i64, i64, i32, i32 }

@.str.6 = private unnamed_addr constant [35 x i8] c"Lzip: Remaining data is less bytes\00", align 1
@.str.7 = private unnamed_addr constant [18 x i8] c"Lzip: CRC32 error\00", align 1
@.str.8 = private unnamed_addr constant [30 x i8] c"Lzip: Uncompressed size error\00", align 1
@.str.9 = private unnamed_addr constant [24 x i8] c"Lzip: Member size error\00", align 1
@.str.10 = private unnamed_addr constant [5 x i8] c"LZIP\00", align 1

; Function Attrs: nounwind uwtable
define internal i32 @lzip_has_member(ptr noundef %0) #0 {
  %2 = alloca i32, align 4
  %3 = alloca ptr, align 8
  %4 = alloca ptr, align 8
  %5 = alloca i64, align 8
  %6 = alloca i32, align 4
  %7 = alloca i32, align 4
  %8 = alloca i32, align 4
  store ptr %0, ptr %3, align 8, !tbaa !13
  call void @llvm.lifetime.start.p0(i64 8, ptr %4) #8
  call void @llvm.lifetime.start.p0(i64 8, ptr %5) #8
  call void @llvm.lifetime.start.p0(i64 4, ptr %6) #8
  call void @llvm.lifetime.start.p0(i64 4, ptr %7) #8
  %9 = load ptr, ptr %3, align 8, !tbaa !13
  %10 = call ptr @__archive_read_filter_ahead(ptr noundef %9, i64 noundef 6, ptr noundef %5)
  store ptr %10, ptr %4, align 8, !tbaa !15
  %11 = load ptr, ptr %4, align 8, !tbaa !15
  %12 = icmp eq ptr %11, null
  br i1 %12, label %13, label %14

13:                                               ; preds = %1
  store i32 0, ptr %2, align 4
  store i32 1, ptr %8, align 4
  br label %52

14:                                               ; preds = %1
  store i32 0, ptr %6, align 4, !tbaa !39
  %15 = load ptr, ptr %4, align 8, !tbaa !15
  %16 = call i32 @memcmp(ptr noundef %15, ptr noundef @.str.10, i64 noundef 4) #9
  %17 = icmp ne i32 %16, 0
  br i1 %17, label %18, label %19

18:                                               ; preds = %14
  store i32 0, ptr %2, align 4
  store i32 1, ptr %8, align 4
  br label %52

19:                                               ; preds = %14
  %20 = load i32, ptr %6, align 4, !tbaa !39
  %21 = add nsw i32 %20, 32
  store i32 %21, ptr %6, align 4, !tbaa !39
  %22 = load ptr, ptr %4, align 8, !tbaa !15
  %23 = getelementptr inbounds i8, ptr %22, i64 4
  %24 = load i8, ptr %23, align 1, !tbaa !49
  %25 = zext i8 %24 to i32
  %26 = icmp ne i32 %25, 0
  br i1 %26, label %27, label %34

27:                                               ; preds = %19
  %28 = load ptr, ptr %4, align 8, !tbaa !15
  %29 = getelementptr inbounds i8, ptr %28, i64 4
  %30 = load i8, ptr %29, align 1, !tbaa !49
  %31 = zext i8 %30 to i32
  %32 = icmp ne i32 %31, 1
  br i1 %32, label %33, label %34

33:                                               ; preds = %27
  store i32 0, ptr %2, align 4
  store i32 1, ptr %8, align 4
  br label %52

34:                                               ; preds = %27, %19
  %35 = load i32, ptr %6, align 4, !tbaa !39
  %36 = add nsw i32 %35, 8
  store i32 %36, ptr %6, align 4, !tbaa !39
  %37 = load ptr, ptr %4, align 8, !tbaa !15
  %38 = getelementptr inbounds i8, ptr %37, i64 5
  %39 = load i8, ptr %38, align 1, !tbaa !49
  %40 = zext i8 %39 to i32
  %41 = and i32 %40, 31
  store i32 %41, ptr %7, align 4, !tbaa !39
  %42 = load i32, ptr %7, align 4, !tbaa !39
  %43 = icmp slt i32 %42, 12
  br i1 %43, label %47, label %44

44:                                               ; preds = %34
  %45 = load i32, ptr %7, align 4, !tbaa !39
  %46 = icmp sgt i32 %45, 29
  br i1 %46, label %47, label %48

47:                                               ; preds = %44, %34
  store i32 0, ptr %2, align 4
  store i32 1, ptr %8, align 4
  br label %52

48:                                               ; preds = %44
  %49 = load i32, ptr %6, align 4, !tbaa !39
  %50 = add nsw i32 %49, 8
  store i32 %50, ptr %6, align 4, !tbaa !39
  %51 = load i32, ptr %6, align 4, !tbaa !39
  store i32 %51, ptr %2, align 4
  store i32 1, ptr %8, align 4
  br label %52

52:                                               ; preds = %48, %47, %33, %18, %13
  call void @llvm.lifetime.end.p0(i64 4, ptr %7) #8
  call void @llvm.lifetime.end.p0(i64 4, ptr %6) #8
  call void @llvm.lifetime.end.p0(i64 8, ptr %5) #8
  call void @llvm.lifetime.end.p0(i64 8, ptr %4) #8
  %53 = load i32, ptr %2, align 4
  ret i32 %53
}

; Function Attrs: inlinehint nounwind uwtable
define internal i64 @archive_le64dec(ptr noundef %0) #7 {
  %2 = alloca ptr, align 8
  %3 = alloca ptr, align 8
  store ptr %0, ptr %2, align 8, !tbaa !25
  call void @llvm.lifetime.start.p0(i64 8, ptr %3) #8
  %4 = load ptr, ptr %2, align 8, !tbaa !25
  store ptr %4, ptr %3, align 8, !tbaa !15
  %5 = load ptr, ptr %3, align 8, !tbaa !15
  %6 = getelementptr inbounds i8, ptr %5, i64 4
  %7 = call i32 @archive_le32dec(ptr noundef %6)
  %8 = zext i32 %7 to i64
  %9 = shl i64 %8, 32
  %10 = load ptr, ptr %3, align 8, !tbaa !15
  %11 = call i32 @archive_le32dec(ptr noundef %10)
  %12 = zext i32 %11 to i64
  %13 = or i64 %9, %12
  call void @llvm.lifetime.end.p0(i64 8, ptr %3) #8
  ret i64 %13
}

; Function Attrs: inlinehint nounwind uwtable
define internal i32 @archive_le32dec(ptr noundef %0) #7 {
  %2 = alloca ptr, align 8
  %3 = alloca ptr, align 8
  %4 = alloca i32, align 4
  %5 = alloca i32, align 4
  %6 = alloca i32, align 4
  %7 = alloca i32, align 4
  store ptr %0, ptr %2, align 8, !tbaa !25
  call void @llvm.lifetime.start.p0(i64 8, ptr %3) #8
  %8 = load ptr, ptr %2, align 8, !tbaa !25
  store ptr %8, ptr %3, align 8, !tbaa !15
  call void @llvm.lifetime.start.p0(i64 4, ptr %4) #8
  %9 = load ptr, ptr %3, align 8, !tbaa !15
  %10 = getelementptr inbounds i8, ptr %9, i64 3
  %11 = load i8, ptr %10, align 1, !tbaa !49
  %12 = zext i8 %11 to i32
  store i32 %12, ptr %4, align 4, !tbaa !39
  call void @llvm.lifetime.start.p0(i64 4, ptr %5) #8
  %13 = load ptr, ptr %3, align 8, !tbaa !15
  %14 = getelementptr inbounds i8, ptr %13, i64 2
  %15 = load i8, ptr %14, align 1, !tbaa !49
  %16 = zext i8 %15 to i32
  store i32 %16, ptr %5, align 4, !tbaa !39
  call void @llvm.lifetime.start.p0(i64 4, ptr %6) #8
  %17 = load ptr, ptr %3, align 8, !tbaa !15
  %18 = getelementptr inbounds i8, ptr %17, i64 1
  %19 = load i8, ptr %18, align 1, !tbaa !49
  %20 = zext i8 %19 to i32
  store i32 %20, ptr %6, align 4, !tbaa !39
  call void @llvm.lifetime.start.p0(i64 4, ptr %7) #8
  %21 = load ptr, ptr %3, align 8, !tbaa !15
  %22 = getelementptr inbounds i8, ptr %21, i64 0
  %23 = load i8, ptr %22, align 1, !tbaa !49
  %24 = zext i8 %23 to i32
  store i32 %24, ptr %7, align 4, !tbaa !39
  %25 = load i32, ptr %4, align 4, !tbaa !39
  %26 = shl i32 %25, 24
  %27 = load i32, ptr %5, align 4, !tbaa !39
  %28 = shl i32 %27, 16
  %29 = or i32 %26, %28
  %30 = load i32, ptr %6, align 4, !tbaa !39
  %31 = shl i32 %30, 8
  %32 = or i32 %29, %31
  %33 = load i32, ptr %7, align 4, !tbaa !39
  %34 = or i32 %32, %33
  call void @llvm.lifetime.end.p0(i64 4, ptr %7) #8
  call void @llvm.lifetime.end.p0(i64 4, ptr %6) #8
  call void @llvm.lifetime.end.p0(i64 4, ptr %5) #8
  call void @llvm.lifetime.end.p0(i64 4, ptr %4) #8
  call void @llvm.lifetime.end.p0(i64 8, ptr %3) #8
  ret i32 %34
}

; Function Attrs: nounwind uwtable
define internal i32 @lzip_tail(ptr noundef %0) #0 {
  %2 = alloca i32, align 4
  %3 = alloca ptr, align 8
  %4 = alloca ptr, align 8
  %5 = alloca ptr, align 8
  %6 = alloca i64, align 8
  %7 = alloca i32, align 4
  %8 = alloca i32, align 4
  store ptr %0, ptr %3, align 8, !tbaa !13
  call void @llvm.lifetime.start.p0(i64 8, ptr %4) #8
  call void @llvm.lifetime.start.p0(i64 8, ptr %5) #8
  call void @llvm.lifetime.start.p0(i64 8, ptr %6) #8
  call void @llvm.lifetime.start.p0(i64 4, ptr %7) #8
  %9 = load ptr, ptr %3, align 8, !tbaa !13
  %10 = getelementptr inbounds nuw %struct.archive_read_filter, ptr %9, i32 0, i32 5
  %11 = load ptr, ptr %10, align 8, !tbaa !27
  store ptr %11, ptr %4, align 8, !tbaa !23
  %12 = load ptr, ptr %4, align 8, !tbaa !23
  %13 = getelementptr inbounds nuw %struct.private_data, ptr %12, i32 0, i32 6
  %14 = load i8, ptr %13, align 2, !tbaa !50
  %15 = sext i8 %14 to i32
  %16 = icmp eq i32 %15, 0
  br i1 %16, label %17, label %18

17:                                               ; preds = %1
  store i32 12, ptr %7, align 4, !tbaa !39
  br label %19

18:                                               ; preds = %1
  store i32 20, ptr %7, align 4, !tbaa !39
  br label %19

19:                                               ; preds = %18, %17
  %20 = load ptr, ptr %3, align 8, !tbaa !13
  %21 = getelementptr inbounds nuw %struct.archive_read_filter, ptr %20, i32 0, i32 2
  %22 = load ptr, ptr %21, align 8, !tbaa !43
  %23 = load i32, ptr %7, align 4, !tbaa !39
  %24 = sext i32 %23 to i64
  %25 = call ptr @__archive_read_filter_ahead(ptr noundef %22, i64 noundef %24, ptr noundef %6)
  store ptr %25, ptr %5, align 8, !tbaa !15
  %26 = load ptr, ptr %5, align 8, !tbaa !15
  %27 = icmp eq ptr %26, null
  br i1 %27, label %28, label %32

28:                                               ; preds = %19
  %29 = load i64, ptr %6, align 8, !tbaa !41
  %30 = icmp slt i64 %29, 0
  br i1 %30, label %31, label %32

31:                                               ; preds = %28
  store i32 -30, ptr %2, align 4
  store i32 1, ptr %8, align 4
  br label %116

32:                                               ; preds = %28, %19
  %33 = load ptr, ptr %5, align 8, !tbaa !15
  %34 = icmp eq ptr %33, null
  br i1 %34, label %40, label %35

35:                                               ; preds = %32
  %36 = load i64, ptr %6, align 8, !tbaa !41
  %37 = load i32, ptr %7, align 4, !tbaa !39
  %38 = sext i32 %37 to i64
  %39 = icmp slt i64 %36, %38
  br i1 %39, label %40, label %45

40:                                               ; preds = %35, %32
  %41 = load ptr, ptr %3, align 8, !tbaa !13
  %42 = getelementptr inbounds nuw %struct.archive_read_filter, ptr %41, i32 0, i32 3
  %43 = load ptr, ptr %42, align 8, !tbaa !26
  %44 = getelementptr inbounds nuw %struct.archive_read, ptr %43, i32 0, i32 0
  call void (ptr, i32, ptr, ...) @archive_set_error(ptr noundef %44, i32 noundef -1, ptr noundef @.str.6)
  store i32 -25, ptr %2, align 4
  store i32 1, ptr %8, align 4
  br label %116

45:                                               ; preds = %35
  %46 = load ptr, ptr %4, align 8, !tbaa !23
  %47 = getelementptr inbounds nuw %struct.private_data, ptr %46, i32 0, i32 7
  %48 = load i32, ptr %47, align 4, !tbaa !37
  %49 = load ptr, ptr %5, align 8, !tbaa !15
  %50 = call i32 @archive_le32dec(ptr noundef %49)
  %51 = icmp ne i32 %48, %50
  br i1 %51, label %52, label %57

52:                                               ; preds = %45
  %53 = load ptr, ptr %3, align 8, !tbaa !13
  %54 = getelementptr inbounds nuw %struct.archive_read_filter, ptr %53, i32 0, i32 3
  %55 = load ptr, ptr %54, align 8, !tbaa !26
  %56 = getelementptr inbounds nuw %struct.archive_read, ptr %55, i32 0, i32 0
  call void (ptr, i32, ptr, ...) @archive_set_error(ptr noundef %56, i32 noundef -1, ptr noundef @.str.7)
  store i32 -25, ptr %2, align 4
  store i32 1, ptr %8, align 4
  br label %116

57:                                               ; preds = %45
  %58 = load ptr, ptr %4, align 8, !tbaa !23
  %59 = getelementptr inbounds nuw %struct.private_data, ptr %58, i32 0, i32 9
  %60 = load i64, ptr %59, align 8, !tbaa !48
  %61 = load ptr, ptr %5, align 8, !tbaa !15
  %62 = getelementptr inbounds i8, ptr %61, i64 4
  %63 = call i64 @archive_le64dec(ptr noundef %62)
  %64 = icmp ne i64 %60, %63
  br i1 %64, label %65, label %70

65:                                               ; preds = %57
  %66 = load ptr, ptr %3, align 8, !tbaa !13
  %67 = getelementptr inbounds nuw %struct.archive_read_filter, ptr %66, i32 0, i32 3
  %68 = load ptr, ptr %67, align 8, !tbaa !26
  %69 = getelementptr inbounds nuw %struct.archive_read, ptr %68, i32 0, i32 0
  call void (ptr, i32, ptr, ...) @archive_set_error(ptr noundef %69, i32 noundef -1, ptr noundef @.str.8)
  store i32 -25, ptr %2, align 4
  store i32 1, ptr %8, align 4
  br label %116

70:                                               ; preds = %57
  %71 = load ptr, ptr %4, align 8, !tbaa !23
  %72 = getelementptr inbounds nuw %struct.private_data, ptr %71, i32 0, i32 6
  %73 = load i8, ptr %72, align 2, !tbaa !50
  %74 = sext i8 %73 to i32
  %75 = icmp eq i32 %74, 1
  br i1 %75, label %76, label %92

76:                                               ; preds = %70
  %77 = load ptr, ptr %4, align 8, !tbaa !23
  %78 = getelementptr inbounds nuw %struct.private_data, ptr %77, i32 0, i32 8
  %79 = load i64, ptr %78, align 8, !tbaa !40
  %80 = load i32, ptr %7, align 4, !tbaa !39
  %81 = sext i32 %80 to i64
  %82 = add i64 %79, %81
  %83 = load ptr, ptr %5, align 8, !tbaa !15
  %84 = getelementptr inbounds i8, ptr %83, i64 12
  %85 = call i64 @archive_le64dec(ptr noundef %84)
  %86 = icmp ne i64 %82, %85
  br i1 %86, label %87, label %92

87:                                               ; preds = %76
  %88 = load ptr, ptr %3, align 8, !tbaa !13
  %89 = getelementptr inbounds nuw %struct.archive_read_filter, ptr %88, i32 0, i32 3
  %90 = load ptr, ptr %89, align 8, !tbaa !26
  %91 = getelementptr inbounds nuw %struct.archive_read, ptr %90, i32 0, i32 0
  call void (ptr, i32, ptr, ...) @archive_set_error(ptr noundef %91, i32 noundef -1, ptr noundef @.str.9)
  store i32 -25, ptr %2, align 4
  store i32 1, ptr %8, align 4
  br label %116

92:                                               ; preds = %76, %70
  %93 = load ptr, ptr %3, align 8, !tbaa !13
  %94 = getelementptr inbounds nuw %struct.archive_read_filter, ptr %93, i32 0, i32 2
  %95 = load ptr, ptr %94, align 8, !tbaa !43
  %96 = load i32, ptr %7, align 4, !tbaa !39
  %97 = sext i32 %96 to i64
  %98 = call i64 @__archive_read_filter_consume(ptr noundef %95, i64 noundef %97)
  %99 = load ptr, ptr %3, align 8, !tbaa !13
  %100 = getelementptr inbounds nuw %struct.archive_read_filter, ptr %99, i32 0, i32 2
  %101 = load ptr, ptr %100, align 8, !tbaa !43
  %102 = call i32 @lzip_has_member(ptr noundef %101)
  %103 = icmp ne i32 %102, 0
  br i1 %103, label %104, label %115

104:                                              ; preds = %92
  %105 = load ptr, ptr %4, align 8, !tbaa !23
  %106 = getelementptr inbounds nuw %struct.private_data, ptr %105, i32 0, i32 5
  store i8 0, ptr %106, align 1, !tbaa !38
  %107 = load ptr, ptr %4, align 8, !tbaa !23
  %108 = getelementptr inbounds nuw %struct.private_data, ptr %107, i32 0, i32 7
  store i32 0, ptr %108, align 4, !tbaa !37
  %109 = load ptr, ptr %4, align 8, !tbaa !23
  %110 = getelementptr inbounds nuw %struct.private_data, ptr %109, i32 0, i32 9
  store i64 0, ptr %110, align 8, !tbaa !48
  %111 = load ptr, ptr %4, align 8, !tbaa !23
  %112 = getelementptr inbounds nuw %struct.private_data, ptr %111, i32 0, i32 8
  store i64 0, ptr %112, align 8, !tbaa !40
  %113 = load ptr, ptr %4, align 8, !tbaa !23
  %114 = getelementptr inbounds nuw %struct.private_data, ptr %113, i32 0, i32 4
  store i8 0, ptr %114, align 8, !tbaa !42
  br label %115

115:                                              ; preds = %104, %92
  store i32 0, ptr %2, align 4
  store i32 1, ptr %8, align 4
  br label %116

116:                                              ; preds = %115, %87, %65, %52, %40, %31
  call void @llvm.lifetime.end.p0(i64 4, ptr %7) #8
  call void @llvm.lifetime.end.p0(i64 8, ptr %6) #8
  call void @llvm.lifetime.end.p0(i64 8, ptr %5) #8
  call void @llvm.lifetime.end.p0(i64 8, ptr %4) #8
  %117 = load i32, ptr %2, align 4
  ret i32 %117
}