; Function Attrs: nounwind uwtable
define internal fastcc range(i32 -30, 1) i32 @lzip_tail(ptr noundef readonly captures(none) %0) unnamed_addr #0 {
  %2 = alloca i64, align 8
  %3 = alloca i64, align 8
  call void @llvm.lifetime.start.p0(i64 8, ptr nonnull %3) #10
  %4 = getelementptr inbounds nuw i8, ptr %0, i64 40
  %5 = load ptr, ptr %4, align 8, !tbaa !18
  %6 = getelementptr inbounds nuw i8, ptr %5, i64 162
  %7 = load i8, ptr %6, align 2, !tbaa !34
  %8 = icmp eq i8 %7, 0
  %. = select i1 %8, i64 12, i64 20
  %9 = getelementptr inbounds nuw i8, ptr %0, i64 16
  %10 = load ptr, ptr %9, align 8, !tbaa !32
  %11 = call ptr @__archive_read_filter_ahead(ptr noundef %10, i64 noundef %., ptr noundef nonnull %3) #10
  %12 = icmp eq ptr %11, null
  %13 = load i64, ptr %3, align 8
  %14 = icmp slt i64 %13, 0
  %or.cond = select i1 %12, i1 %14, i1 false
  br i1 %or.cond, label %63, label %15

15:                                               ; preds = %1
  %16 = icmp slt i64 %13, %.
  %or.cond34 = select i1 %12, i1 true, i1 %16
  br i1 %or.cond34, label %17, label %20

17:                                               ; preds = %15
  %18 = getelementptr inbounds nuw i8, ptr %0, i64 24
  %19 = load ptr, ptr %18, align 8, !tbaa !17
  call void (ptr, i32, ptr, ...) @archive_set_error(ptr noundef %19, i32 noundef -1, ptr noundef nonnull @.str.6) #10
  br label %63

20:                                               ; preds = %15
  %21 = getelementptr inbounds nuw i8, ptr %5, i64 164
  %22 = load i32, ptr %21, align 4, !tbaa !44
  %23 = load i32, ptr %11, align 1
  %.not = icmp eq i32 %22, %23
  br i1 %.not, label %27, label %24

24:                                               ; preds = %20
  %25 = getelementptr inbounds nuw i8, ptr %0, i64 24
  %26 = load ptr, ptr %25, align 8, !tbaa !17
  call void (ptr, i32, ptr, ...) @archive_set_error(ptr noundef %26, i32 noundef -1, ptr noundef nonnull @.str.7) #10
  br label %63

27:                                               ; preds = %20
  %28 = getelementptr inbounds nuw i8, ptr %5, i64 176
  %29 = load i64, ptr %28, align 8, !tbaa !42
  %30 = getelementptr inbounds nuw i8, ptr %11, i64 4
  %.val = load i64, ptr %30, align 1
  %.not31 = icmp eq i64 %29, %.val
  br i1 %.not31, label %34, label %31

31:                                               ; preds = %27
  %32 = getelementptr inbounds nuw i8, ptr %0, i64 24
  %33 = load ptr, ptr %32, align 8, !tbaa !17
  call void (ptr, i32, ptr, ...) @archive_set_error(ptr noundef %33, i32 noundef -1, ptr noundef nonnull @.str.8) #10
  br label %63

34:                                               ; preds = %27
  %35 = load i8, ptr %6, align 2, !tbaa !34
  %36 = icmp eq i8 %35, 1
  br i1 %36, label %37, label %45

37:                                               ; preds = %34
  %38 = getelementptr inbounds nuw i8, ptr %5, i64 168
  %39 = load i64, ptr %38, align 8, !tbaa !28
  %40 = add i64 %39, %.
  %41 = getelementptr inbounds nuw i8, ptr %11, i64 12
  %.val36 = load i64, ptr %41, align 1
  %.not32 = icmp eq i64 %40, %.val36
  br i1 %.not32, label %45, label %42

42:                                               ; preds = %37
  %43 = getelementptr inbounds nuw i8, ptr %0, i64 24
  %44 = load ptr, ptr %43, align 8, !tbaa !17
  call void (ptr, i32, ptr, ...) @archive_set_error(ptr noundef %44, i32 noundef -1, ptr noundef nonnull @.str.9) #10
  br label %63

45:                                               ; preds = %37, %34
  %46 = load ptr, ptr %9, align 8, !tbaa !32
  %47 = call i64 @__archive_read_filter_consume(ptr noundef %46, i64 noundef %.) #10
  %48 = load ptr, ptr %9, align 8, !tbaa !32
  call void @llvm.lifetime.start.p0(i64 8, ptr nonnull %2) #10
  %49 = call ptr @__archive_read_filter_ahead(ptr noundef %48, i64 noundef 6, ptr noundef nonnull %2) #10
  %50 = icmp eq ptr %49, null
  br i1 %50, label %lzip_has_member.exit.thread, label %51

51:                                               ; preds = %45
  %bcmp.i = call i32 @bcmp(ptr noundef nonnull dereferenceable(4) %49, ptr noundef nonnull dereferenceable(4) @.str.10, i64 4)
  %.not.i = icmp eq i32 %bcmp.i, 0
  br i1 %.not.i, label %52, label %lzip_has_member.exit.thread

52:                                               ; preds = %51
  %53 = getelementptr inbounds nuw i8, ptr %49, i64 4
  %54 = load i8, ptr %53, align 1, !tbaa !33
  %switch.i = icmp ult i8 %54, 2
  br i1 %switch.i, label %55, label %lzip_has_member.exit.thread

55:                                               ; preds = %52
  %56 = getelementptr inbounds nuw i8, ptr %49, i64 5
  %57 = load i8, ptr %56, align 1, !tbaa !33
  %58 = and i8 %57, 30
  %59 = add nsw i8 %58, -30
  %or.cond.i = icmp ult i8 %59, -18
  br i1 %or.cond.i, label %lzip_has_member.exit.thread, label %60

lzip_has_member.exit.thread:                      ; preds = %45, %51, %52, %55
  call void @llvm.lifetime.end.p0(i64 8, ptr nonnull %2) #10
  br label %63

60:                                               ; preds = %55
  call void @llvm.lifetime.end.p0(i64 8, ptr nonnull %2) #10
  %61 = getelementptr inbounds nuw i8, ptr %5, i64 161
  store i8 0, ptr %61, align 1, !tbaa !27
  %62 = getelementptr inbounds nuw i8, ptr %5, i64 160
  store i8 0, ptr %62, align 8, !tbaa !29
  call void @llvm.memset.p0.i64(ptr noundef nonnull align 4 dereferenceable(20) %21, i8 0, i64 20, i1 false)
  br label %63

63:                                               ; preds = %lzip_has_member.exit.thread, %60, %1, %42, %31, %24, %17
  %.028 = phi i32 [ -25, %17 ], [ -25, %24 ], [ -25, %31 ], [ -25, %42 ], [ -30, %1 ], [ 0, %60 ], [ 0, %lzip_has_member.exit.thread ]
  call void @llvm.lifetime.end.p0(i64 8, ptr nonnull %3) #10
  ret i32 %.028
}